; Function Attrs: nounwind uwtable
define void @ossl_policy_cache_free(ptr noundef %0) local_unnamed_addr #0 {
  %.not = icmp eq ptr %0, null
  br i1 %.not, label %6, label %2

2:                                                ; preds = %1
  %3 = load ptr, ptr %0, align 8, !tbaa !3
  tail call void @ossl_policy_data_free(ptr noundef %3) #4
  %4 = getelementptr inbounds nuw i8, ptr %0, i64 8
  %5 = load ptr, ptr %4, align 8, !tbaa !11
  tail call void @OPENSSL_sk_pop_free(ptr noundef %5, ptr noundef nonnull @ossl_policy_data_free) #4
  tail call void @CRYPTO_free(ptr noundef nonnull %0, ptr noundef nonnull @.str, i32 noundef 184) #4
  br label %6

6:                                                ; preds = %1, %2
  ret void
}